; Function Attrs: nounwind uwtable
define hidden zeroext i1 @SDL_PauseHaptic_REAL(ptr noundef %0) local_unnamed_addr #0 {
  %2 = tail call zeroext i1 @SDL_ObjectValid(ptr noundef %0, i32 noundef 6) #9
  br i1 %2, label %5, label %3

3:                                                ; preds = %1
  %4 = tail call zeroext i1 (ptr, ...) @SDL_SetError_REAL(ptr noundef nonnull @.str, ptr noundef nonnull @.str.1) #9
  br label %17

5:                                                ; preds = %1
  %6 = getelementptr inbounds nuw i8, ptr %0, i64 32
  %7 = load i32, ptr %6, align 8
  %8 = and i32 %7, 524288
  %.not = icmp eq i32 %8, 0
  br i1 %.not, label %9, label %11

9:                                                ; preds = %5
  %10 = tail call zeroext i1 (ptr, ...) @SDL_SetError_REAL(ptr noundef nonnull @.str.17) #9
  br label %17

11:                                               ; preds = %5
  %12 = tail call zeroext i1 @SDL_HIDAPI_HapticIsHidapi(ptr noundef nonnull %0) #9
  br i1 %12, label %13, label %15

13:                                               ; preds = %11
  %14 = tail call zeroext i1 @SDL_HIDAPI_HapticPause(ptr noundef nonnull %0) #9
  br label %17

15:                                               ; preds = %11
  %16 = tail call zeroext i1 @SDL_SYS_HapticPause(ptr noundef nonnull %0) #9
  br label %17

17:                                               ; preds = %15, %13, %9, %3
  %.0 = phi i1 [ %14, %13 ], [ %16, %15 ], [ %10, %9 ], [ false, %3 ]
  ret i1 %.0
}